; Function Attrs: inlinehint mustprogress optsize uwtable
define internal noundef ptr @"_ZZN8nanobind6detail11func_createILb0ELb1EZL32nanobind_init_test_functions_extRNS_7module_EE4$_42PKcJNS_5bytesEEJLm0EEJNS_5scopeENS_4nameEEEEP7_objectOT1_PFT2_DpT3_ESt16integer_sequenceImJXspT4_EEEDpRKT5_ENUlPvPSB_PhNS_9rv_policyEPNS0_12cleanup_listEE_8__invokeESP_SQ_SR_SS_SU_"(ptr readnone captures(none) %0, ptr noundef readonly captures(none) %1, ptr noundef readonly captures(none) %2, i32 noundef %3, ptr noundef %4) #15 align 2 personality ptr @__gxx_personality_v0 {
  %6 = alloca %"struct.nanobind::detail::tuple.406", align 8
  %7 = alloca %"class.nanobind::bytes", align 8
  call void @llvm.lifetime.start.p0(i64 8, ptr nonnull %7)
  call void @llvm.lifetime.start.p0(i64 8, ptr nonnull %6) #27
  store ptr null, ptr %6, align 8
  %8 = load ptr, ptr %1, align 8, !tbaa !158
  %9 = load i8, ptr %2, align 1, !tbaa !41
  %10 = call noundef zeroext i1 @_ZN8nanobind6detail11type_casterINS_5bytesEiE11from_pythonENS_6handleEhPNS0_12cleanup_listE(ptr noundef nonnull align 8 dereferenceable(8) %6, ptr %8, i8 noundef zeroext %9, ptr noundef %4) #31
  br i1 %10, label %11, label %"_ZZN8nanobind6detail11func_createILb0ELb1EZL32nanobind_init_test_functions_extRNS_7module_EE4$_42PKcJNS_5bytesEEJLm0EEJNS_5scopeENS_4nameEEEEP7_objectOT1_PFT2_DpT3_ESt16integer_sequenceImJXspT4_EEEDpRKT5_ENKUlPvPSB_PhNS_9rv_policyEPNS0_12cleanup_listEE_clESP_SQ_SR_SS_SU_.exit"

11:                                               ; preds = %5
  %12 = load i64, ptr %6, align 8
  store i64 %12, ptr %7, align 8
  store ptr null, ptr %6, align 8, !tbaa !44
  %.val.cast = inttoptr i64 %12 to ptr
  %13 = invoke noundef ptr @PyBytes_AsString(ptr noundef %.val.cast) #28
          to label %"_ZZL32nanobind_init_test_functions_extRN8nanobind7module_EENK4$_42clENS_5bytesE.exit" unwind label %16

"_ZZL32nanobind_init_test_functions_extRN8nanobind7module_EENK4$_42clENS_5bytesE.exit": ; preds = %11
  %14 = call ptr @_ZN8nanobind6detail11type_casterIciE8from_cppEPKcNS_9rv_policyEPNS0_12cleanup_listE(ptr noundef %13, i32 noundef %3, ptr noundef %4) #31
  %15 = call noundef nonnull align 8 dereferenceable(8) ptr @_ZNKR8nanobind6handle7dec_refEv(ptr noundef nonnull align 8 dereferenceable(8) %7) #31
  br label %"_ZZN8nanobind6detail11func_createILb0ELb1EZL32nanobind_init_test_functions_extRNS_7module_EE4$_42PKcJNS_5bytesEEJLm0EEJNS_5scopeENS_4nameEEEEP7_objectOT1_PFT2_DpT3_ESt16integer_sequenceImJXspT4_EEEDpRKT5_ENKUlPvPSB_PhNS_9rv_policyEPNS0_12cleanup_listEE_clESP_SQ_SR_SS_SU_.exit"

16:                                               ; preds = %11
  %17 = landingpad { ptr, i32 }
          cleanup
  %18 = call noundef nonnull align 8 dereferenceable(8) ptr @_ZNKR8nanobind6handle7dec_refEv(ptr noundef nonnull align 8 dereferenceable(8) %7) #31
  %19 = call noundef nonnull align 8 dereferenceable(8) ptr @_ZNKR8nanobind6handle7dec_refEv(ptr noundef nonnull align 8 dereferenceable(8) %6) #31
  call void @llvm.lifetime.end.p0(i64 8, ptr nonnull %6) #27
  resume { ptr, i32 } %17

"_ZZN8nanobind6detail11func_createILb0ELb1EZL32nanobind_init_test_functions_extRNS_7module_EE4$_42PKcJNS_5bytesEEJLm0EEJNS_5scopeENS_4nameEEEEP7_objectOT1_PFT2_DpT3_ESt16integer_sequenceImJXspT4_EEEDpRKT5_ENKUlPvPSB_PhNS_9rv_policyEPNS0_12cleanup_listEE_clESP_SQ_SR_SS_SU_.exit": ; preds = %5, %"_ZZL32nanobind_init_test_functions_extRN8nanobind7module_EENK4$_42clENS_5bytesE.exit"
  %.0.i = phi ptr [ %14, %"_ZZL32nanobind_init_test_functions_extRN8nanobind7module_EENK4$_42clENS_5bytesE.exit" ], [ inttoptr (i64 1 to ptr), %5 ]
  %20 = call noundef nonnull align 8 dereferenceable(8) ptr @_ZNKR8nanobind6handle7dec_refEv(ptr noundef nonnull align 8 dereferenceable(8) %6) #31
  call void @llvm.lifetime.end.p0(i64 8, ptr nonnull %6) #27
  call void @llvm.lifetime.end.p0(i64 8, ptr nonnull %7)
  ret ptr %.0.i
}